target datalayout = "e-m:e-p270:32:32-p271:32:32-p272:64:64-i64:64-i128:128-f80:128-n8:16:32:64-S128"
target triple = "x86_64-pc-linux-gnu"

%struct._capture_file = type { ptr, i32, ptr, ptr, i8, i8, i8, i64, i16, i32, i32, i32, ptr, i32, i64, i32, i32, i32, i32, i8, i32, %struct.nstime_t, i32, ptr, ptr, ptr, i8, i8, i32, ptr, i8, i8, i8, i8, i8, i32, i32, i8, ptr, i32, i32, i8, %struct.packet_provider_data, i32, i32, %struct.epan_column_info, ptr, ptr, ptr, %struct.wtap_rec, %struct.Buffer, ptr, i64, i32 }
%struct.nstime_t = type { i64, i32 }
%struct.packet_provider_data = type { ptr, ptr, ptr, ptr, ptr, ptr }
%struct.epan_column_info = type { ptr, i32, ptr, ptr, ptr, %struct.col_expr_t, i8, ptr }
%struct.col_expr_t = type { ptr, ptr }
%struct.wtap_rec = type { i32, i32, i32, %struct.nstime_t, i32, %struct.nstime_t, i8, %union.anon, ptr, i8, %struct.Buffer, %struct.Buffer }
%union.anon = type { %struct.wtap_packet_header }
%struct.wtap_packet_header = type { i32, i32, i32, i32, %union.wtap_pseudo_header }
%union.wtap_pseudo_header = type { %struct.erf_mc_phdr }
%struct.erf_mc_phdr = type { %struct.erf_phdr, [16 x %struct.erf_ehdr], %union.anon.1 }
%struct.erf_phdr = type { i64, i8, i8, i16, i16, i16 }
%struct.erf_ehdr = type { i64 }
%union.anon.1 = type { i32 }
%struct.Buffer = type { ptr, i64, i64, i64 }
%struct._GSList = type { ptr, ptr }

@.str.12 = private unnamed_addr constant [1 x i8] zeroinitializer, align 1

; Function Attrs: null_pointer_is_valid sspstrong uwtable
define hidden ptr @cf_get_basename(ptr noundef %0) #1 {
  %2 = alloca ptr, align 8
  %3 = alloca ptr, align 8
  %4 = alloca i64, align 8
  %5 = alloca ptr, align 8
  %6 = alloca ptr, align 8
  %7 = alloca ptr, align 8
  %8 = alloca i64, align 8
  %9 = alloca i32, align 4
  store ptr %0, ptr %2, align 8
  call void @llvm.lifetime.start.p0(i64 8, ptr %3) #19
  %10 = load ptr, ptr %2, align 8
  %11 = getelementptr inbounds nuw %struct._capture_file, ptr %10, i32 0, i32 4
  %12 = load i8, ptr %11, align 8, !range !8, !noundef !9
  %13 = trunc i8 %12 to i1
  br i1 %13, label %85, label %14

14:                                               ; preds = %1
  %15 = load ptr, ptr %2, align 8
  %16 = getelementptr inbounds nuw %struct._capture_file, ptr %15, i32 0, i32 2
  %17 = load ptr, ptr %16, align 8
  %18 = icmp ne ptr %17, null
  br i1 %18, label %19, label %82

19:                                               ; preds = %14
  %20 = load ptr, ptr %2, align 8
  %21 = getelementptr inbounds nuw %struct._capture_file, ptr %20, i32 0, i32 2
  %22 = load ptr, ptr %21, align 8
  %23 = call noalias ptr @g_filename_display_basename(ptr noundef %22)
  store ptr %23, ptr %3, align 8
  call void @llvm.lifetime.start.p0(i64 8, ptr %4) #19
  %24 = load ptr, ptr %3, align 8
  %25 = call i64 @strlen(ptr noundef %24) #25
  store i64 %25, ptr %4, align 8
  call void @llvm.lifetime.start.p0(i64 8, ptr %5) #19
  %26 = call ptr @wtap_get_all_file_extensions_list()
  store ptr %26, ptr %5, align 8
  call void @llvm.lifetime.start.p0(i64 8, ptr %6) #19
  %27 = load ptr, ptr %5, align 8
  store ptr %27, ptr %6, align 8
  br label %28

28:                                               ; preds = %78, %19
  %29 = load ptr, ptr %6, align 8
  %30 = icmp ne ptr %29, null
  br i1 %30, label %31, label %80

31:                                               ; preds = %28
  call void @llvm.lifetime.start.p0(i64 8, ptr %7) #19
  %32 = load ptr, ptr %6, align 8
  %33 = getelementptr inbounds nuw %struct._GSList, ptr %32, i32 0, i32 0
  %34 = load ptr, ptr %33, align 8
  store ptr %34, ptr %7, align 8
  call void @llvm.lifetime.start.p0(i64 8, ptr %8) #19
  %35 = load ptr, ptr %7, align 8
  %36 = call i64 @strlen(ptr noundef %35) #25
  store i64 %36, ptr %8, align 8
  %37 = load i64, ptr %4, align 8
  %38 = load i64, ptr %8, align 8
  %39 = icmp ugt i64 %37, %38
  br i1 %39, label %40, label %66

40:                                               ; preds = %31
  %41 = load ptr, ptr %3, align 8
  %42 = load i64, ptr %4, align 8
  %43 = load i64, ptr %8, align 8
  %44 = sub i64 %42, %43
  %45 = sub i64 %44, 1
  %46 = getelementptr i8, ptr %41, i64 %45
  %47 = load i8, ptr %46, align 1
  %48 = sext i8 %47 to i32
  %49 = icmp eq i32 %48, 46
  br i1 %49, label %50, label %66

50:                                               ; preds = %40
  %51 = load ptr, ptr %3, align 8
  %52 = load i64, ptr %4, align 8
  %53 = load i64, ptr %8, align 8
  %54 = sub i64 %52, %53
  %55 = getelementptr i8, ptr %51, i64 %54
  %56 = load ptr, ptr %7, align 8
  %57 = call i32 @strcmp(ptr noundef %55, ptr noundef %56) #25
  %58 = icmp eq i32 %57, 0
  br i1 %58, label %59, label %66

59:                                               ; preds = %50
  %60 = load ptr, ptr %3, align 8
  %61 = load i64, ptr %4, align 8
  %62 = load i64, ptr %8, align 8
  %63 = sub i64 %61, %62
  %64 = sub i64 %63, 1
  %65 = getelementptr i8, ptr %60, i64 %64
  store i8 0, ptr %65, align 1
  store i32 2, ptr %9, align 4
  br label %67

66:                                               ; preds = %50, %40, %31
  store i32 0, ptr %9, align 4
  br label %67

67:                                               ; preds = %66, %59
  call void @llvm.lifetime.end.p0(i64 8, ptr %8) #19
  call void @llvm.lifetime.end.p0(i64 8, ptr %7) #19
  %68 = load i32, ptr %9, align 4
  switch i32 %68, label %100 [
    i32 0, label %69
    i32 2, label %80
  ]

69:                                               ; preds = %67
  br label %70

70:                                               ; preds = %69
  %71 = load ptr, ptr %6, align 8
  %72 = icmp ne ptr %71, null
  br i1 %72, label %73, label %77

73:                                               ; preds = %70
  %74 = load ptr, ptr %6, align 8
  %75 = getelementptr inbounds nuw %struct._GSList, ptr %74, i32 0, i32 1
  %76 = load ptr, ptr %75, align 8
  br label %78

77:                                               ; preds = %70
  br label %78

78:                                               ; preds = %77, %73
  %79 = phi ptr [ %76, %73 ], [ null, %77 ]
  store ptr %79, ptr %6, align 8
  br label %28, !llvm.loop !14

80:                                               ; preds = %67, %28
  %81 = load ptr, ptr %5, align 8
  call void @wtap_free_extensions_list(ptr noundef %81)
  call void @llvm.lifetime.end.p0(i64 8, ptr %6) #19
  call void @llvm.lifetime.end.p0(i64 8, ptr %5) #19
  call void @llvm.lifetime.end.p0(i64 8, ptr %4) #19
  br label %84

82:                                               ; preds = %14
  %83 = call noalias ptr @g_strdup(ptr noundef @.str.12)
  store ptr %83, ptr %3, align 8
  br label %84

84:                                               ; preds = %82, %80
  br label %98

85:                                               ; preds = %1
  %86 = load ptr, ptr %2, align 8
  %87 = getelementptr inbounds nuw %struct._capture_file, ptr %86, i32 0, i32 3
  %88 = load ptr, ptr %87, align 8
  %89 = icmp ne ptr %88, null
  br i1 %89, label %90, label %95

90:                                               ; preds = %85
  %91 = load ptr, ptr %2, align 8
  %92 = getelementptr inbounds nuw %struct._capture_file, ptr %91, i32 0, i32 3
  %93 = load ptr, ptr %92, align 8
  %94 = call noalias ptr @g_strdup(ptr noundef %93)
  store ptr %94, ptr %3, align 8
  br label %97

95:                                               ; preds = %85
  %96 = call noalias ptr @g_strdup(ptr noundef @.str.12)
  store ptr %96, ptr %3, align 8
  br label %97

97:                                               ; preds = %95, %90
  br label %98

98:                                               ; preds = %97, %84
  %99 = load ptr, ptr %3, align 8
  store i32 1, ptr %9, align 4
  call void @llvm.lifetime.end.p0(i64 8, ptr %3) #19
  ret ptr %99

100:                                              ; preds = %67
  unreachable
}