; Function Attrs: null_pointer_is_valid sspstrong uwtable
define hidden noalias ptr @cf_get_basename(ptr noundef readonly captures(none) %0) local_unnamed_addr #1 {
  %2 = getelementptr inbounds nuw i8, ptr %0, i64 32
  %3 = load i8, ptr %2, align 8, !range !9, !noundef !10
  %4 = trunc nuw i8 %3 to i1
  br i1 %4, label %31, label %5

5:                                                ; preds = %1
  %6 = getelementptr inbounds nuw i8, ptr %0, i64 16
  %7 = load ptr, ptr %6, align 8
  %.not = icmp eq ptr %7, null
  br i1 %.not, label %29, label %8

8:                                                ; preds = %5
  %9 = tail call noalias ptr @g_filename_display_basename(ptr noundef nonnull %7)
  %10 = tail call i64 @strlen(ptr noundef %9) #26
  %11 = tail call ptr @wtap_get_all_file_extensions_list()
  %.not3237 = icmp eq ptr %11, null
  br i1 %.not3237, label %.loopexit, label %.lr.ph

.lr.ph:                                           ; preds = %8, %26
  %.02738 = phi ptr [ %28, %26 ], [ %11, %8 ]
  %12 = load ptr, ptr %.02738, align 8
  %13 = tail call i64 @strlen(ptr noundef %12) #26
  %14 = icmp ugt i64 %10, %13
  br i1 %14, label %15, label %26

15:                                               ; preds = %.lr.ph
  %16 = sub nuw i64 %10, %13
  %17 = getelementptr i8, ptr %9, i64 %16
  %18 = getelementptr i8, ptr %17, i64 -1
  %19 = load i8, ptr %18, align 1
  %20 = icmp eq i8 %19, 46
  br i1 %20, label %21, label %26

21:                                               ; preds = %15
  %22 = tail call i32 @strcmp(ptr noundef %17, ptr noundef %12) #26
  %23 = icmp eq i32 %22, 0
  br i1 %23, label %24, label %26

24:                                               ; preds = %21
  %25 = getelementptr i8, ptr %17, i64 -1
  store i8 0, ptr %25, align 1
  br label %.loopexit

26:                                               ; preds = %21, %15, %.lr.ph
  %27 = getelementptr inbounds nuw i8, ptr %.02738, i64 8
  %28 = load ptr, ptr %27, align 8
  %.not32 = icmp eq ptr %28, null
  br i1 %.not32, label %.loopexit, label %.lr.ph, !llvm.loop !15

.loopexit:                                        ; preds = %26, %8, %24
  tail call void @wtap_free_extensions_list(ptr noundef %11)
  br label %38

29:                                               ; preds = %5
  %30 = tail call noalias ptr @g_strdup(ptr noundef nonnull @.str.12)
  br label %38

31:                                               ; preds = %1
  %32 = getelementptr inbounds nuw i8, ptr %0, i64 24
  %33 = load ptr, ptr %32, align 8
  %.not33 = icmp eq ptr %33, null
  br i1 %.not33, label %36, label %34

34:                                               ; preds = %31
  %35 = tail call noalias ptr @g_strdup(ptr noundef nonnull %33)
  br label %38

36:                                               ; preds = %31
  %37 = tail call noalias ptr @g_strdup(ptr noundef nonnull @.str.12)
  br label %38

38:                                               ; preds = %34, %36, %.loopexit, %29
  %.026 = phi ptr [ %35, %34 ], [ %37, %36 ], [ %9, %.loopexit ], [ %30, %29 ]
  ret ptr %.026
}